target datalayout = "e-m:e-p270:32:32-p271:32:32-p272:64:64-i64:64-i128:128-f80:128-n8:16:32:64-S128"
target triple = "x86_64-pc-linux-gnu"

%struct.PROV_XORSIG_CTX = type { ptr, ptr, ptr, i8, [50 x i8], ptr, i64, ptr, ptr, i32 }

; Function Attrs: nounwind uwtable
define internal i32 @xor_sig_digest_verify_final(ptr noundef %0, ptr noundef %1, i64 noundef %2) #0 {
  %4 = alloca i32, align 4
  %5 = alloca ptr, align 8
  %6 = alloca ptr, align 8
  %7 = alloca i64, align 8
  %8 = alloca ptr, align 8
  %9 = alloca [64 x i8], align 16
  %10 = alloca i32, align 4
  %11 = alloca i32, align 4
  store ptr %0, ptr %5, align 8, !tbaa !13
  store ptr %1, ptr %6, align 8, !tbaa !30
  store i64 %2, ptr %7, align 8, !tbaa !35
  call void @llvm.lifetime.start.p0(i64 8, ptr %8) #8
  %12 = load ptr, ptr %5, align 8, !tbaa !13
  store ptr %12, ptr %8, align 8, !tbaa !13
  call void @llvm.lifetime.start.p0(i64 64, ptr %9) #8
  call void @llvm.lifetime.start.p0(i64 4, ptr %10) #8
  store i32 0, ptr %10, align 4, !tbaa !27
  %13 = load ptr, ptr %8, align 8, !tbaa !13
  %14 = icmp eq ptr %13, null
  br i1 %14, label %20, label %15

15:                                               ; preds = %3
  %16 = load ptr, ptr %8, align 8, !tbaa !13
  %17 = getelementptr inbounds nuw %struct.PROV_XORSIG_CTX, ptr %16, i32 0, i32 8
  %18 = load ptr, ptr %17, align 8, !tbaa !147
  %19 = icmp eq ptr %18, null
  br i1 %19, label %20, label %21

20:                                               ; preds = %15, %3
  store i32 0, ptr %4, align 4
  store i32 1, ptr %11, align 4
  br label %42

21:                                               ; preds = %15
  %22 = load ptr, ptr %8, align 8, !tbaa !13
  %23 = getelementptr inbounds nuw %struct.PROV_XORSIG_CTX, ptr %22, i32 0, i32 8
  %24 = load ptr, ptr %23, align 8, !tbaa !147
  %25 = getelementptr inbounds [64 x i8], ptr %9, i64 0, i64 0
  %26 = call i32 @EVP_DigestFinal_ex(ptr noundef %24, ptr noundef %25, ptr noundef %10)
  %27 = icmp ne i32 %26, 0
  br i1 %27, label %29, label %28

28:                                               ; preds = %21
  store i32 0, ptr %4, align 4
  store i32 1, ptr %11, align 4
  br label %42

29:                                               ; preds = %21
  %30 = load ptr, ptr %8, align 8, !tbaa !13
  %31 = getelementptr inbounds nuw %struct.PROV_XORSIG_CTX, ptr %30, i32 0, i32 3
  %32 = load i8, ptr %31, align 8
  %33 = and i8 %32, -2
  %34 = or i8 %33, 1
  store i8 %34, ptr %31, align 8
  %35 = load ptr, ptr %5, align 8, !tbaa !13
  %36 = load ptr, ptr %6, align 8, !tbaa !30
  %37 = load i64, ptr %7, align 8, !tbaa !35
  %38 = getelementptr inbounds [64 x i8], ptr %9, i64 0, i64 0
  %39 = load i32, ptr %10, align 4, !tbaa !27
  %40 = zext i32 %39 to i64
  %41 = call i32 @xor_sig_verify(ptr noundef %35, ptr noundef %36, i64 noundef %37, ptr noundef %38, i64 noundef %40)
  store i32 %41, ptr %4, align 4
  store i32 1, ptr %11, align 4
  br label %42

42:                                               ; preds = %29, %28, %20
  call void @llvm.lifetime.end.p0(i64 4, ptr %10) #8
  call void @llvm.lifetime.end.p0(i64 64, ptr %9) #8
  call void @llvm.lifetime.end.p0(i64 8, ptr %8) #8
  %43 = load i32, ptr %4, align 4
  ret i32 %43
}