; Function Attrs: nounwind uwtable
define internal range(i32 0, 2) i32 @xor_sig_digest_verify_final(ptr noundef captures(address_is_null) %0, ptr noundef captures(address_is_null) %1, i64 noundef %2) #0 {
  %4 = alloca [64 x i8], align 16
  %5 = alloca i32, align 4
  call void @llvm.lifetime.start.p0(i64 64, ptr nonnull %4) #16
  call void @llvm.lifetime.start.p0(i64 4, ptr nonnull %5) #16
  store i32 0, ptr %5, align 4, !tbaa !11
  %6 = icmp eq ptr %0, null
  br i1 %6, label %20, label %7

7:                                                ; preds = %3
  %8 = getelementptr inbounds nuw i8, ptr %0, i64 104
  %9 = load ptr, ptr %8, align 8, !tbaa !114
  %10 = icmp eq ptr %9, null
  br i1 %10, label %20, label %11

11:                                               ; preds = %7
  %12 = call i32 @EVP_DigestFinal_ex(ptr noundef nonnull %9, ptr noundef nonnull %4, ptr noundef nonnull %5) #16
  %.not = icmp eq i32 %12, 0
  br i1 %.not, label %20, label %13

13:                                               ; preds = %11
  %14 = getelementptr inbounds nuw i8, ptr %0, i64 24
  %15 = load i8, ptr %14, align 8
  %16 = or i8 %15, 1
  store i8 %16, ptr %14, align 8
  %17 = load i32, ptr %5, align 4, !tbaa !11
  %18 = zext i32 %17 to i64
  %19 = call i32 @xor_sig_verify(ptr noundef nonnull %0, ptr noundef %1, i64 noundef %2, ptr noundef nonnull %4, i64 noundef %18)
  br label %20

20:                                               ; preds = %11, %3, %7, %13
  %.0 = phi i32 [ %19, %13 ], [ 0, %7 ], [ 0, %3 ], [ 0, %11 ]
  call void @llvm.lifetime.end.p0(i64 4, ptr nonnull %5) #16
  call void @llvm.lifetime.end.p0(i64 64, ptr nonnull %4) #16
  ret i32 %.0
}